; Function Attrs: mustprogress nofree norecurse nosync nounwind willreturn memory(argmem: write) uwtable
define hidden void @_ZN5zxing6qrcode12QRCodeReader27setPossibleAPCountByVersionEj(ptr noundef nonnull writeonly align 8 captures(none) dereferenceable(148) initializes((120, 124)) %0, i32 noundef %1) local_unnamed_addr #10 align 2 {
  %3 = icmp ult i32 %1, 2
  br i1 %3, label %4, label %6

4:                                                ; preds = %2
  %5 = getelementptr inbounds nuw i8, ptr %0, i64 120
  store i32 0, ptr %5, align 8, !tbaa !97
  br label %27

6:                                                ; preds = %2
  %7 = icmp ult i32 %1, 7
  br i1 %7, label %8, label %10

8:                                                ; preds = %6
  %9 = getelementptr inbounds nuw i8, ptr %0, i64 120
  store i32 1, ptr %9, align 8, !tbaa !97
  br label %27

10:                                               ; preds = %6
  %11 = icmp ult i32 %1, 14
  br i1 %11, label %12, label %14

12:                                               ; preds = %10
  %13 = getelementptr inbounds nuw i8, ptr %0, i64 120
  store i32 2, ptr %13, align 8, !tbaa !97
  br label %27

14:                                               ; preds = %10
  %15 = icmp ult i32 %1, 21
  br i1 %15, label %16, label %18

16:                                               ; preds = %14
  %17 = getelementptr inbounds nuw i8, ptr %0, i64 120
  store i32 3, ptr %17, align 8, !tbaa !97
  br label %27

18:                                               ; preds = %14
  %19 = icmp ult i32 %1, 28
  br i1 %19, label %20, label %22

20:                                               ; preds = %18
  %21 = getelementptr inbounds nuw i8, ptr %0, i64 120
  store i32 4, ptr %21, align 8, !tbaa !97
  br label %27

22:                                               ; preds = %18
  %23 = icmp ult i32 %1, 35
  %24 = getelementptr inbounds nuw i8, ptr %0, i64 120
  br i1 %23, label %25, label %26

25:                                               ; preds = %22
  store i32 5, ptr %24, align 8, !tbaa !97
  br label %27

26:                                               ; preds = %22
  store i32 6, ptr %24, align 8, !tbaa !97
  br label %27

27:                                               ; preds = %8, %16, %25, %26, %20, %12, %4
  ret void
}